; Function Attrs: nounwind uwtable
define range(i32 -29, 1) i32 @PMIx_Argv_append_unique_nosize(ptr noundef captures(none) %0, ptr noundef readonly captures(none) %1) local_unnamed_addr #6 {
  %3 = load ptr, ptr %0, align 8, !tbaa !16
  %4 = icmp eq ptr %3, null
  br i1 %4, label %6, label %.preheader.i

.preheader.i:                                     ; preds = %2
  %5 = load ptr, ptr %3, align 8, !tbaa !12
  %.not1.i = icmp eq ptr %5, null
  br i1 %.not1.i, label %pmix_bfrops_base_tma_argv_count.exit.i21.i, label %.lr.ph.i

6:                                                ; preds = %2
  %calloc.i.i = tail call dereferenceable_or_null(16) ptr @calloc(i64 1, i64 16)
  store ptr %calloc.i.i, ptr %0, align 8, !tbaa !16
  %7 = icmp eq ptr %calloc.i.i, null
  br i1 %7, label %pmix_bfrops_base_tma_argv_append_unique_nosize.exit, label %8

8:                                                ; preds = %6
  %9 = tail call noalias ptr @strdup(ptr noundef readonly %1) #44
  store ptr %9, ptr %calloc.i.i, align 8, !tbaa !12
  %10 = icmp eq ptr %9, null
  %spec.select.i = select i1 %10, i32 -29, i32 0
  br label %pmix_bfrops_base_tma_argv_append_unique_nosize.exit

11:                                               ; preds = %.lr.ph.i
  %indvars.iv.next.i = add nuw nsw i64 %indvars.iv.i, 1
  %12 = getelementptr inbounds nuw ptr, ptr %3, i64 %indvars.iv.next.i
  %13 = load ptr, ptr %12, align 8, !tbaa !12
  %.not.i = icmp eq ptr %13, null
  br i1 %.not.i, label %.lr.ph.i.i17.i, label %.lr.ph.i, !llvm.loop !18

.lr.ph.i:                                         ; preds = %.preheader.i, %11
  %indvars.iv.i = phi i64 [ %indvars.iv.next.i, %11 ], [ 0, %.preheader.i ]
  %14 = phi ptr [ %13, %11 ], [ %5, %.preheader.i ]
  %15 = tail call i32 @strcmp(ptr noundef nonnull readonly dereferenceable(1) %1, ptr noundef nonnull dereferenceable(1) %14) #42
  %16 = icmp eq i32 %15, 0
  br i1 %16, label %pmix_bfrops_base_tma_argv_append_unique_nosize.exit, label %11

.lr.ph.i.i17.i:                                   ; preds = %11, %.lr.ph.i.i17.i
  %.03.i.i18.i = phi i32 [ %17, %.lr.ph.i.i17.i ], [ 0, %11 ]
  %.062.i.i19.i = phi ptr [ %18, %.lr.ph.i.i17.i ], [ %3, %11 ]
  %17 = add nuw nsw i32 %.03.i.i18.i, 1
  %18 = getelementptr inbounds nuw i8, ptr %.062.i.i19.i, i64 8
  %19 = load ptr, ptr %18, align 8, !tbaa !12
  %.not.i.i20.i = icmp eq ptr %19, null
  br i1 %.not.i.i20.i, label %pmix_bfrops_base_tma_argv_count.exit.i21.i, label %.lr.ph.i.i17.i, !llvm.loop !15

pmix_bfrops_base_tma_argv_count.exit.i21.i:       ; preds = %.lr.ph.i.i17.i, %.preheader.i
  %.07.i.i22.i = phi i32 [ 0, %.preheader.i ], [ %17, %.lr.ph.i.i17.i ]
  %20 = add nsw i32 %.07.i.i22.i, 2
  %21 = sext i32 %20 to i64
  %22 = shl nsw i64 %21, 3
  %23 = tail call noalias noundef ptr @realloc(ptr noundef nonnull %3, i64 noundef %22) #43
  store ptr %23, ptr %0, align 8, !tbaa !16
  %24 = icmp eq ptr %23, null
  br i1 %24, label %pmix_bfrops_base_tma_argv_append_unique_nosize.exit, label %25

25:                                               ; preds = %pmix_bfrops_base_tma_argv_count.exit.i21.i
  %26 = tail call noalias ptr @strdup(ptr noundef readonly %1) #44
  %27 = sext i32 %.07.i.i22.i to i64
  %28 = getelementptr inbounds ptr, ptr %23, i64 %27
  store ptr %26, ptr %28, align 8, !tbaa !12
  %29 = icmp eq ptr %26, null
  br i1 %29, label %pmix_bfrops_base_tma_argv_append_unique_nosize.exit, label %30

30:                                               ; preds = %25
  %31 = getelementptr i8, ptr %28, i64 8
  store ptr null, ptr %31, align 8, !tbaa !12
  br label %pmix_bfrops_base_tma_argv_append_unique_nosize.exit

pmix_bfrops_base_tma_argv_append_unique_nosize.exit: ; preds = %.lr.ph.i, %6, %8, %pmix_bfrops_base_tma_argv_count.exit.i21.i, %25, %30
  %.013.i = phi i32 [ -29, %6 ], [ 0, %30 ], [ -29, %pmix_bfrops_base_tma_argv_count.exit.i21.i ], [ -29, %25 ], [ %spec.select.i, %8 ], [ 0, %.lr.ph.i ]
  ret i32 %.013.i
}